target datalayout = "e-m:e-p270:32:32-p271:32:32-p272:64:64-i64:64-i128:128-f80:128-n8:16:32:64-S128"
target triple = "x86_64-pc-linux-gnu"

%struct.__va_list_tag = type { i32, i32, ptr, ptr }

@.str.3 = private unnamed_addr constant [1 x i8] zeroinitializer, align 1

; Function Attrs: nounwind uwtable
define dso_local void @php_error_docref(ptr noundef %0, i32 noundef %1, ptr noundef %2, ...) #1 {
  %4 = alloca ptr, align 8
  %5 = alloca i32, align 4
  %6 = alloca ptr, align 8
  %7 = alloca [1 x %struct.__va_list_tag], align 16
  store ptr %0, ptr %4, align 8, !tbaa !14
  store i32 %1, ptr %5, align 4, !tbaa !50
  store ptr %2, ptr %6, align 8, !tbaa !14
  br label %8

8:                                                ; preds = %3
  call void @llvm.lifetime.start.p0(i64 24, ptr %7) #18
  %9 = getelementptr inbounds [1 x %struct.__va_list_tag], ptr %7, i64 0, i64 0
  call void @llvm.va_start.p0(ptr %9)
  %10 = load ptr, ptr %4, align 8, !tbaa !14
  %11 = load i32, ptr %5, align 4, !tbaa !50
  %12 = load ptr, ptr %6, align 8, !tbaa !14
  %13 = getelementptr inbounds [1 x %struct.__va_list_tag], ptr %7, i64 0, i64 0
  call void @php_verror(ptr noundef %10, ptr noundef @.str.3, i32 noundef %11, ptr noundef %12, ptr noundef %13)
  %14 = getelementptr inbounds [1 x %struct.__va_list_tag], ptr %7, i64 0, i64 0
  call void @llvm.va_end.p0(ptr %14)
  call void @llvm.lifetime.end.p0(i64 24, ptr %7) #18
  br label %15

15:                                               ; preds = %8
  ret void
}